target datalayout = "e-m:e-p270:32:32-p271:32:32-p272:64:64-i64:64-i128:128-f80:128-n8:16:32:64-S128"
target triple = "x86_64-pc-linux-gnu"

%union.mbedtls_ssl_user_data_t = type { i64 }
%struct.mbedtls_ssl_context = type { ptr, i32, i32, i32, i32, i32, ptr, ptr, ptr, ptr, ptr, ptr, ptr, ptr, ptr, ptr, ptr, ptr, ptr, ptr, ptr, ptr, ptr, ptr, ptr, ptr, ptr, ptr, ptr, ptr, ptr, ptr, ptr, i32, i64, i64, i16, i64, i64, i64, i64, i32, i32, i8, i8, i32, i8, ptr, ptr, ptr, ptr, ptr, ptr, ptr, i32, i64, i64, [8 x i8], i16, ptr, ptr, ptr, i64, i32, i64, [12 x i8], [12 x i8], [32 x i8], i8, i8, ptr, ptr, %union.mbedtls_ssl_user_data_t }
%struct.mbedtls_ssl_session = type { i8, i8, i8, i32, i64, i32, i64, [32 x i8], [48 x i8], ptr, i32, ptr, i64, i32, i64, i32, i8, i8, [48 x i8], ptr, i64, i32, %struct.mbedtls_ssl_tls13_application_secrets }
%struct.mbedtls_ssl_tls13_application_secrets = type { [64 x i8], [64 x i8], [64 x i8], [64 x i8] }

@.str = private unnamed_addr constant [121 x i8] c"generated/home/dtcxzyw/WorkSpace/Projects/compilers/llvm-opt-benchmark/bench/lief/bench_build/mbed_src/library/ssl_tls.c\00", align 1
@.str.39 = private unnamed_addr constant [8 x i8] c"=> free\00", align 1
@.str.40 = private unnamed_addr constant [8 x i8] c"<= free\00", align 1

; Function Attrs: nounwind uwtable
define internal void @ssl_clear_peer_cert(ptr noundef %0) #0 {
  %2 = alloca ptr, align 8
  store ptr %0, ptr %2, align 8, !tbaa !50
  %3 = load ptr, ptr %2, align 8, !tbaa !50
  %4 = getelementptr inbounds nuw %struct.mbedtls_ssl_session, ptr %3, i32 0, i32 9
  %5 = load ptr, ptr %4, align 8, !tbaa !55
  %6 = icmp ne ptr %5, null
  br i1 %6, label %7, label %16

7:                                                ; preds = %1
  %8 = load ptr, ptr %2, align 8, !tbaa !50
  %9 = getelementptr inbounds nuw %struct.mbedtls_ssl_session, ptr %8, i32 0, i32 9
  %10 = load ptr, ptr %9, align 8, !tbaa !55
  call void @mbedtls_x509_crt_free(ptr noundef %10)
  %11 = load ptr, ptr %2, align 8, !tbaa !50
  %12 = getelementptr inbounds nuw %struct.mbedtls_ssl_session, ptr %11, i32 0, i32 9
  %13 = load ptr, ptr %12, align 8, !tbaa !55
  call void @free(ptr noundef %13) #11
  %14 = load ptr, ptr %2, align 8, !tbaa !50
  %15 = getelementptr inbounds nuw %struct.mbedtls_ssl_session, ptr %14, i32 0, i32 9
  store ptr null, ptr %15, align 8, !tbaa !55
  br label %16

16:                                               ; preds = %7, %1
  ret void
}

; Function Attrs: nounwind uwtable
define hidden void @mbedtls_ssl_session_free(ptr noundef %0) #0 {
  %2 = alloca ptr, align 8
  store ptr %0, ptr %2, align 8, !tbaa !50
  %3 = load ptr, ptr %2, align 8, !tbaa !50
  %4 = icmp eq ptr %3, null
  br i1 %4, label %5, label %6

5:                                                ; preds = %1
  br label %15

6:                                                ; preds = %1
  %7 = load ptr, ptr %2, align 8, !tbaa !50
  call void @ssl_clear_peer_cert(ptr noundef %7)
  %8 = load ptr, ptr %2, align 8, !tbaa !50
  %9 = getelementptr inbounds nuw %struct.mbedtls_ssl_session, ptr %8, i32 0, i32 19
  %10 = load ptr, ptr %9, align 8, !tbaa !54
  call void @free(ptr noundef %10) #11
  %11 = load ptr, ptr %2, align 8, !tbaa !50
  %12 = getelementptr inbounds nuw %struct.mbedtls_ssl_session, ptr %11, i32 0, i32 11
  %13 = load ptr, ptr %12, align 8, !tbaa !51
  call void @free(ptr noundef %13) #11
  %14 = load ptr, ptr %2, align 8, !tbaa !50
  call void @mbedtls_platform_zeroize(ptr noundef %14, i64 noundef 496)
  br label %15

15:                                               ; preds = %6, %5
  ret void
}

; Function Attrs: nounwind uwtable
define hidden void @mbedtls_ssl_free(ptr noundef %0) #0 {
  %2 = alloca ptr, align 8
  %3 = alloca i64, align 8
  %4 = alloca i64, align 8
  store ptr %0, ptr %2, align 8, !tbaa !27
  %5 = load ptr, ptr %2, align 8, !tbaa !27
  %6 = icmp eq ptr %5, null
  br i1 %6, label %7, label %8

7:                                                ; preds = %1
  br label %104

8:                                                ; preds = %1
  %9 = load ptr, ptr %2, align 8, !tbaa !27
  call void (ptr, i32, ptr, i32, ptr, ...) @mbedtls_debug_print_msg(ptr noundef %9, i32 noundef 2, ptr noundef @.str, i32 noundef 5521, ptr noundef @.str.39)
  %10 = load ptr, ptr %2, align 8, !tbaa !27
  %11 = getelementptr inbounds nuw %struct.mbedtls_ssl_context, ptr %10, i32 0, i32 47
  %12 = load ptr, ptr %11, align 8, !tbaa !91
  %13 = icmp ne ptr %12, null
  br i1 %13, label %14, label %21

14:                                               ; preds = %8
  call void @llvm.lifetime.start.p0(i64 8, ptr %3) #11
  store i64 16765, ptr %3, align 8, !tbaa !8
  %15 = load ptr, ptr %2, align 8, !tbaa !27
  %16 = getelementptr inbounds nuw %struct.mbedtls_ssl_context, ptr %15, i32 0, i32 47
  %17 = load ptr, ptr %16, align 8, !tbaa !91
  %18 = load i64, ptr %3, align 8, !tbaa !8
  call void @mbedtls_zeroize_and_free(ptr noundef %17, i64 noundef %18)
  %19 = load ptr, ptr %2, align 8, !tbaa !27
  %20 = getelementptr inbounds nuw %struct.mbedtls_ssl_context, ptr %19, i32 0, i32 47
  store ptr null, ptr %20, align 8, !tbaa !91
  call void @llvm.lifetime.end.p0(i64 8, ptr %3) #11
  br label %21

21:                                               ; preds = %14, %8
  %22 = load ptr, ptr %2, align 8, !tbaa !27
  %23 = getelementptr inbounds nuw %struct.mbedtls_ssl_context, ptr %22, i32 0, i32 25
  %24 = load ptr, ptr %23, align 8, !tbaa !92
  %25 = icmp ne ptr %24, null
  br i1 %25, label %26, label %33

26:                                               ; preds = %21
  call void @llvm.lifetime.start.p0(i64 8, ptr %4) #11
  store i64 16765, ptr %4, align 8, !tbaa !8
  %27 = load ptr, ptr %2, align 8, !tbaa !27
  %28 = getelementptr inbounds nuw %struct.mbedtls_ssl_context, ptr %27, i32 0, i32 25
  %29 = load ptr, ptr %28, align 8, !tbaa !92
  %30 = load i64, ptr %4, align 8, !tbaa !8
  call void @mbedtls_zeroize_and_free(ptr noundef %29, i64 noundef %30)
  %31 = load ptr, ptr %2, align 8, !tbaa !27
  %32 = getelementptr inbounds nuw %struct.mbedtls_ssl_context, ptr %31, i32 0, i32 25
  store ptr null, ptr %32, align 8, !tbaa !92
  call void @llvm.lifetime.end.p0(i64 8, ptr %4) #11
  br label %33

33:                                               ; preds = %26, %21
  %34 = load ptr, ptr %2, align 8, !tbaa !27
  %35 = getelementptr inbounds nuw %struct.mbedtls_ssl_context, ptr %34, i32 0, i32 19
  %36 = load ptr, ptr %35, align 8, !tbaa !138
  %37 = icmp ne ptr %36, null
  br i1 %37, label %38, label %45

38:                                               ; preds = %33
  %39 = load ptr, ptr %2, align 8, !tbaa !27
  %40 = getelementptr inbounds nuw %struct.mbedtls_ssl_context, ptr %39, i32 0, i32 19
  %41 = load ptr, ptr %40, align 8, !tbaa !138
  call void @mbedtls_ssl_transform_free(ptr noundef %41)
  %42 = load ptr, ptr %2, align 8, !tbaa !27
  %43 = getelementptr inbounds nuw %struct.mbedtls_ssl_context, ptr %42, i32 0, i32 19
  %44 = load ptr, ptr %43, align 8, !tbaa !138
  call void @free(ptr noundef %44) #11
  br label %45

45:                                               ; preds = %38, %33
  %46 = load ptr, ptr %2, align 8, !tbaa !27
  %47 = getelementptr inbounds nuw %struct.mbedtls_ssl_context, ptr %46, i32 0, i32 16
  %48 = load ptr, ptr %47, align 8, !tbaa !78
  %49 = icmp ne ptr %48, null
  br i1 %49, label %50, label %67

50:                                               ; preds = %45
  %51 = load ptr, ptr %2, align 8, !tbaa !27
  call void @mbedtls_ssl_handshake_free(ptr noundef %51)
  %52 = load ptr, ptr %2, align 8, !tbaa !27
  %53 = getelementptr inbounds nuw %struct.mbedtls_ssl_context, ptr %52, i32 0, i32 16
  %54 = load ptr, ptr %53, align 8, !tbaa !78
  call void @free(ptr noundef %54) #11
  %55 = load ptr, ptr %2, align 8, !tbaa !27
  %56 = getelementptr inbounds nuw %struct.mbedtls_ssl_context, ptr %55, i32 0, i32 20
  %57 = load ptr, ptr %56, align 8, !tbaa !104
  call void @mbedtls_ssl_transform_free(ptr noundef %57)
  %58 = load ptr, ptr %2, align 8, !tbaa !27
  %59 = getelementptr inbounds nuw %struct.mbedtls_ssl_context, ptr %58, i32 0, i32 20
  %60 = load ptr, ptr %59, align 8, !tbaa !104
  call void @free(ptr noundef %60) #11
  %61 = load ptr, ptr %2, align 8, !tbaa !27
  %62 = getelementptr inbounds nuw %struct.mbedtls_ssl_context, ptr %61, i32 0, i32 15
  %63 = load ptr, ptr %62, align 8, !tbaa !105
  call void @mbedtls_ssl_session_free(ptr noundef %63)
  %64 = load ptr, ptr %2, align 8, !tbaa !27
  %65 = getelementptr inbounds nuw %struct.mbedtls_ssl_context, ptr %64, i32 0, i32 15
  %66 = load ptr, ptr %65, align 8, !tbaa !105
  call void @free(ptr noundef %66) #11
  br label %67

67:                                               ; preds = %50, %45
  %68 = load ptr, ptr %2, align 8, !tbaa !27
  %69 = getelementptr inbounds nuw %struct.mbedtls_ssl_context, ptr %68, i32 0, i32 21
  %70 = load ptr, ptr %69, align 8, !tbaa !139
  call void @mbedtls_ssl_transform_free(ptr noundef %70)
  %71 = load ptr, ptr %2, align 8, !tbaa !27
  %72 = getelementptr inbounds nuw %struct.mbedtls_ssl_context, ptr %71, i32 0, i32 21
  %73 = load ptr, ptr %72, align 8, !tbaa !139
  call void @free(ptr noundef %73) #11
  %74 = load ptr, ptr %2, align 8, !tbaa !27
  %75 = getelementptr inbounds nuw %struct.mbedtls_ssl_context, ptr %74, i32 0, i32 14
  %76 = load ptr, ptr %75, align 8, !tbaa !147
  %77 = icmp ne ptr %76, null
  br i1 %77, label %78, label %85

78:                                               ; preds = %67
  %79 = load ptr, ptr %2, align 8, !tbaa !27
  %80 = getelementptr inbounds nuw %struct.mbedtls_ssl_context, ptr %79, i32 0, i32 14
  %81 = load ptr, ptr %80, align 8, !tbaa !147
  call void @mbedtls_ssl_session_free(ptr noundef %81)
  %82 = load ptr, ptr %2, align 8, !tbaa !27
  %83 = getelementptr inbounds nuw %struct.mbedtls_ssl_context, ptr %82, i32 0, i32 14
  %84 = load ptr, ptr %83, align 8, !tbaa !147
  call void @free(ptr noundef %84) #11
  br label %85

85:                                               ; preds = %78, %67
  %86 = load ptr, ptr %2, align 8, !tbaa !27
  %87 = getelementptr inbounds nuw %struct.mbedtls_ssl_context, ptr %86, i32 0, i32 59
  %88 = load ptr, ptr %87, align 8, !tbaa !223
  %89 = icmp ne ptr %88, null
  br i1 %89, label %90, label %98

90:                                               ; preds = %85
  %91 = load ptr, ptr %2, align 8, !tbaa !27
  %92 = getelementptr inbounds nuw %struct.mbedtls_ssl_context, ptr %91, i32 0, i32 59
  %93 = load ptr, ptr %92, align 8, !tbaa !223
  %94 = load ptr, ptr %2, align 8, !tbaa !27
  %95 = getelementptr inbounds nuw %struct.mbedtls_ssl_context, ptr %94, i32 0, i32 59
  %96 = load ptr, ptr %95, align 8, !tbaa !223
  %97 = call i64 @strlen(ptr noundef %96) #13
  call void @mbedtls_zeroize_and_free(ptr noundef %93, i64 noundef %97)
  br label %98

98:                                               ; preds = %90, %85
  %99 = load ptr, ptr %2, align 8, !tbaa !27
  %100 = getelementptr inbounds nuw %struct.mbedtls_ssl_context, ptr %99, i32 0, i32 61
  %101 = load ptr, ptr %100, align 8, !tbaa !149
  call void @free(ptr noundef %101) #11
  %102 = load ptr, ptr %2, align 8, !tbaa !27
  call void (ptr, i32, ptr, i32, ptr, ...) @mbedtls_debug_print_msg(ptr noundef %102, i32 noundef 2, ptr noundef @.str, i32 noundef 5583, ptr noundef @.str.40)
  %103 = load ptr, ptr %2, align 8, !tbaa !27
  call void @mbedtls_platform_zeroize(ptr noundef %103, i64 noundef 568)
  br label %104

104:                                              ; preds = %98, %7
  ret void
}