; Function Attrs: nounwind uwtable
define hidden void @mbedtls_ssl_free(ptr noundef %0) local_unnamed_addr #1 {
  %2 = icmp eq ptr %0, null
  br i1 %2, label %61, label %3

3:                                                ; preds = %1
  tail call void (ptr, i32, ptr, i32, ptr, ...) @mbedtls_debug_print_msg(ptr noundef nonnull %0, i32 noundef 2, ptr noundef nonnull @.str, i32 noundef 5521, ptr noundef nonnull @.str.39) #26
  %4 = getelementptr inbounds nuw i8, ptr %0, i64 336
  %5 = load ptr, ptr %4, align 8, !tbaa !85
  %.not = icmp eq ptr %5, null
  br i1 %.not, label %7, label %6

6:                                                ; preds = %3
  tail call void @mbedtls_zeroize_and_free(ptr noundef nonnull %5, i64 noundef 16765) #26
  store ptr null, ptr %4, align 8, !tbaa !85
  br label %7

7:                                                ; preds = %6, %3
  %8 = getelementptr inbounds nuw i8, ptr %0, i64 184
  %9 = load ptr, ptr %8, align 8, !tbaa !86
  %.not35 = icmp eq ptr %9, null
  br i1 %.not35, label %11, label %10

10:                                               ; preds = %7
  tail call void @mbedtls_zeroize_and_free(ptr noundef nonnull %9, i64 noundef 16765) #26
  store ptr null, ptr %8, align 8, !tbaa !86
  br label %11

11:                                               ; preds = %10, %7
  %12 = getelementptr inbounds nuw i8, ptr %0, i64 136
  %13 = load ptr, ptr %12, align 8, !tbaa !120
  %.not36 = icmp eq ptr %13, null
  br i1 %.not36, label %16, label %14

14:                                               ; preds = %11
  tail call void @mbedtls_ssl_transform_free(ptr noundef nonnull %13) #26
  %15 = load ptr, ptr %12, align 8, !tbaa !120
  tail call void @free(ptr noundef %15) #26
  br label %16

16:                                               ; preds = %14, %11
  %17 = getelementptr inbounds nuw i8, ptr %0, i64 112
  %18 = load ptr, ptr %17, align 8, !tbaa !70
  %.not37 = icmp eq ptr %18, null
  br i1 %.not37, label %37, label %19

19:                                               ; preds = %16
  tail call void @mbedtls_ssl_handshake_free(ptr noundef nonnull %0)
  %20 = load ptr, ptr %17, align 8, !tbaa !70
  tail call void @free(ptr noundef %20) #26
  %21 = getelementptr inbounds nuw i8, ptr %0, i64 144
  %22 = load ptr, ptr %21, align 8, !tbaa !87
  tail call void @mbedtls_ssl_transform_free(ptr noundef %22) #26
  %23 = load ptr, ptr %21, align 8, !tbaa !87
  tail call void @free(ptr noundef %23) #26
  %24 = getelementptr inbounds nuw i8, ptr %0, i64 104
  %25 = load ptr, ptr %24, align 8, !tbaa !88
  %26 = icmp eq ptr %25, null
  br i1 %26, label %mbedtls_ssl_session_free.exit, label %27

27:                                               ; preds = %19
  %28 = getelementptr inbounds nuw i8, ptr %25, i64 112
  %29 = load ptr, ptr %28, align 8, !tbaa !44
  %.not.i.i = icmp eq ptr %29, null
  br i1 %.not.i.i, label %ssl_clear_peer_cert.exit.i, label %30

30:                                               ; preds = %27
  tail call void @mbedtls_x509_crt_free(ptr noundef nonnull %29) #26
  %31 = load ptr, ptr %28, align 8, !tbaa !44
  tail call void @free(ptr noundef %31) #26
  store ptr null, ptr %28, align 8, !tbaa !44
  br label %ssl_clear_peer_cert.exit.i

ssl_clear_peer_cert.exit.i:                       ; preds = %30, %27
  %32 = getelementptr inbounds nuw i8, ptr %25, i64 216
  %33 = load ptr, ptr %32, align 8, !tbaa !47
  tail call void @free(ptr noundef %33) #26
  %34 = getelementptr inbounds nuw i8, ptr %25, i64 128
  %35 = load ptr, ptr %34, align 8, !tbaa !48
  tail call void @free(ptr noundef %35) #26
  tail call void @mbedtls_platform_zeroize(ptr noundef nonnull %25, i64 noundef 496) #26
  %.pre = load ptr, ptr %24, align 8, !tbaa !88
  br label %mbedtls_ssl_session_free.exit

mbedtls_ssl_session_free.exit:                    ; preds = %19, %ssl_clear_peer_cert.exit.i
  %36 = phi ptr [ null, %19 ], [ %.pre, %ssl_clear_peer_cert.exit.i ]
  tail call void @free(ptr noundef %36) #26
  br label %37

37:                                               ; preds = %mbedtls_ssl_session_free.exit, %16
  %38 = getelementptr inbounds nuw i8, ptr %0, i64 152
  %39 = load ptr, ptr %38, align 8, !tbaa !121
  tail call void @mbedtls_ssl_transform_free(ptr noundef %39) #26
  %40 = load ptr, ptr %38, align 8, !tbaa !121
  tail call void @free(ptr noundef %40) #26
  %41 = getelementptr inbounds nuw i8, ptr %0, i64 96
  %42 = load ptr, ptr %41, align 8, !tbaa !126
  %.not38 = icmp eq ptr %42, null
  br i1 %.not38, label %53, label %43

43:                                               ; preds = %37
  %44 = getelementptr inbounds nuw i8, ptr %42, i64 112
  %45 = load ptr, ptr %44, align 8, !tbaa !44
  %.not.i.i40 = icmp eq ptr %45, null
  br i1 %.not.i.i40, label %mbedtls_ssl_session_free.exit42, label %46

46:                                               ; preds = %43
  tail call void @mbedtls_x509_crt_free(ptr noundef nonnull %45) #26
  %47 = load ptr, ptr %44, align 8, !tbaa !44
  tail call void @free(ptr noundef %47) #26
  store ptr null, ptr %44, align 8, !tbaa !44
  br label %mbedtls_ssl_session_free.exit42

mbedtls_ssl_session_free.exit42:                  ; preds = %43, %46
  %48 = getelementptr inbounds nuw i8, ptr %42, i64 216
  %49 = load ptr, ptr %48, align 8, !tbaa !47
  tail call void @free(ptr noundef %49) #26
  %50 = getelementptr inbounds nuw i8, ptr %42, i64 128
  %51 = load ptr, ptr %50, align 8, !tbaa !48
  tail call void @free(ptr noundef %51) #26
  tail call void @mbedtls_platform_zeroize(ptr noundef nonnull %42, i64 noundef 496) #26
  %52 = load ptr, ptr %41, align 8, !tbaa !126
  tail call void @free(ptr noundef %52) #26
  br label %53

53:                                               ; preds = %mbedtls_ssl_session_free.exit42, %37
  %54 = getelementptr inbounds nuw i8, ptr %0, i64 432
  %55 = load ptr, ptr %54, align 8, !tbaa !190
  %.not39 = icmp eq ptr %55, null
  br i1 %.not39, label %58, label %56

56:                                               ; preds = %53
  %57 = tail call i64 @strlen(ptr noundef nonnull dereferenceable(1) %55) #28
  tail call void @mbedtls_zeroize_and_free(ptr noundef nonnull %55, i64 noundef %57) #26
  br label %58

58:                                               ; preds = %56, %53
  %59 = getelementptr inbounds nuw i8, ptr %0, i64 448
  %60 = load ptr, ptr %59, align 8, !tbaa !128
  tail call void @free(ptr noundef %60) #26
  tail call void (ptr, i32, ptr, i32, ptr, ...) @mbedtls_debug_print_msg(ptr noundef nonnull %0, i32 noundef 2, ptr noundef nonnull @.str, i32 noundef 5583, ptr noundef nonnull @.str.40) #26
  tail call void @mbedtls_platform_zeroize(ptr noundef nonnull %0, i64 noundef 568) #26
  br label %61

61:                                               ; preds = %1, %58
  ret void
}